(dp0
S"kha'zix"
p1
(lp2
S'kha'
p3
aS'khazix'
p4
asS'evelynn'
p5
(lp6
S'eve'
p7
asS'caitlyn'
p8
(lp9
S'cait'
p10
asS'rengar'
p11
(lp12
S'rango'
p13
asS'blitzcrank'
p14
(lp15
S'blitz'
p16
asS'pantheon'
p17
(lp18
S'panth'
p19
asS'miss fortune'
p20
(lp21
S'mf'
p22
asS'katarina'
p23
(lp24
S'kat'
p25
asS"cho'gath"
p26
(lp27
S'cho'
p28
asS'fiddlesticks'
p29
(lp30
S'fiddle'
p31
aS'fids'
p32
asS"kog'maw"
p33
(lp34
S'kog'
p35
aS'kogmaw'
p36
asS'nocturne'
p37
(lp38
S'noct'
p39
asS'master yi'
p40
(lp41
S'yi'
p42
asS'shyvana'
p43
(lp44
S'shyv'
p45
asS"rek'sai"
p46
(lp47
S'reksai'
p48
asS'dr. mundo'
p49
(lp50
S'mundo'
p51
aS'dr mundo'
p52
asS'twisted fate'
p53
(lp54
S'tf'
p55
asS'lee sin'
p56
(lp57
S'lee'
p58
asS'nidalee'
p59
(lp60
S'nid'
p61
asS'kassadin'
p62
(lp63
S'kass'
p64
asS'amumu'
p65
(lp66
S'mumu'
p67
asS'mordekaiser'
p68
(lp69
S'morde'
p70
asS'cassiopeia'
p71
(lp72
S'cass'
p73
asS'sejuani'
p74
(lp75
S'sej'
p76
asS'malzahar'
p77
(lp78
S'malz'
p79
asS'lissandra'
p80
(lp81
S'liss'
p82
asS'tristana'
p83
(lp84
S'trist'
p85
asS'heimerdinger'
p86
(lp87
S'heimer'
p88
asS'vladimir'
p89
(lp90
S'vlad'
p91
asS'jarvan iv'
p92
(lp93
S'j4'
p94
aS'jarvan'
p95
asS'xin zhao'
p96
(lp97
S'xin'
p98
asS'aurelion sol'
p99
(lp100
S'aurelion'
p101
aS'sol'
p102
asS'volibear'
p103
(lp104
S'voli'
p105
asS"vel'koz"
p106
(lp107
S'velkoz'
p108
as.