(dp0
S'Taliyah'
p1
S'2016-05-18'
p2
sS'Fiddlesticks'
p3
S'2009-02-21'
p4
sS'Jax'
p5
g4
sS'Twisted Fate'
p6
g4
sS'Udyr'
p7
S'2009-12-02'
p8
sS"Rek'Sai"
p9
S'2014-12-11'
p10
sS'Shaco'
p11
S'2009-10-10'
p12
sS'Lucian'
p13
S'2013-08-22'
p14
sS'Ivern'
p15
S'2016-10-05'
p16
sS'Xayah'
p17
S'2017-04-19'
p18
sS'Leona'
p19
S'2011-07-13'
p20
sS'Caitlyn'
p21
S'2011-01-04'
p22
sS'Zyra'
p23
S'2012-07-24'
p24
sS'Azir'
p25
S'2014-09-16'
p26
sS'Nocturne'
p27
S'2011-03-15'
p28
sS'Kled'
p29
S'2016-08-10'
p30
sS'Yasuo'
p31
S'2013-12-13'
p32
sS'Brand'
p33
S'2011-04-12'
p34
sS'Rammus'
p35
S'2009-07-10'
p36
sS'Illaoi'
p37
S'2015-11-24'
p38
sS'Corki'
p39
S'2009-09-19'
p40
sS'Braum'
p41
S'2014-05-12'
p42
sS'Anivia'
p43
g36
sS'Rumble'
p44
S'2011-04-26'
p45
sS'Tryndamere'
p46
S'2009-05-01'
p47
sS'Skarner'
p48
S'2011-08-09'
p49
sS'Kennen'
p50
S'2010-04-08'
p51
sS'Urgot'
p52
S'2010-08-24'
p53
sS'Wukong'
p54
S'2011-07-26'
p55
sS'Amumu'
p56
S'2009-06-26'
p57
sS'Galio'
p58
S'2010-08-10'
p59
sS'Heimerdinger'
p60
g12
sS'Xerath'
p61
S'2011-10-05'
p62
sS"Vel'Koz"
p63
S'2014-02-27'
p64
sS'Sivir'
p65
g4
sS'Rengar'
p66
S'2012-08-21'
p67
sS'Volibear'
p68
S'2011-11-29'
p69
sS'Ashe'
p70
g4
sS'Gangplank'
p71
S'2009-08-19'
p72
sS'Talon'
p73
S'2011-08-24'
p74
sS'Malphite'
p75
S'2009-09-02'
p76
sS'Singed'
p77
S'2009-04-18'
p78
sS'Ryze'
p79
g4
sS'Miss Fortune'
p80
S'2010-09-08'
p81
sS'Poppy'
p82
S'2010-01-13'
p83
sS'Varus'
p84
S'2012-05-08'
p85
sS'Twitch'
p86
g47
sS"Kog'Maw"
p87
S'2010-06-24'
p88
sS'Lee Sin'
p89
S'2011-04-01'
p90
sS'Garen'
p91
S'2010-04-27'
p92
sS'Zilean'
p93
g78
sS'Blitzcrank'
p94
g76
sS'Karthus'
p95
S'2009-06-12'
p96
sS'Jayce'
p97
S'2012-07-07'
p98
sS'Diana'
p99
S'2012-08-07'
p100
sS'Trundle'
p101
S'2010-12-01'
p102
sS'Sejuani'
p103
S'2012-01-17'
p104
sS'Nidalee'
p105
S'2009-12-17'
p106
sS'Elise'
p107
S'2012-10-26'
p108
sS'Alistar'
p109
g4
sS'Katarina'
p110
g40
sS'Ekko'
p111
S'2015-05-28'
p112
sS'Mordekaiser'
p113
S'2010-02-24'
p114
sS'Graves'
p115
S'2011-10-19'
p116
sS'Morgana'
p117
g4
sS'Gnar'
p118
S'2014-08-14'
p119
sS"Kha'Zix"
p120
S'2012-09-27'
p121
sS'Lux'
p122
S'2010-10-19'
p123
sS'Shyvana'
p124
S'2011-11-01'
p125
sS'Jarvan IV'
p126
S'2011-03-01'
p127
sS'Warwick'
p128
g4
sS'Zac'
p129
S'2013-03-29'
p130
sS'Camille'
p131
S'2016-12-07'
p132
sS'Yorick'
p133
S'2011-06-22'
p134
sS'Renekton'
p135
S'2011-01-18'
p136
sS'Aatrox'
p137
S'2013-06-13'
p138
sS'Draven'
p139
S'2012-06-06'
p140
sS'Fiora'
p141
S'2012-02-29'
p142
sS'Jinx'
p143
S'2013-10-10'
p144
sS'Kalista'
p145
S'2014-11-20'
p146
sS'Fizz'
p147
S'2011-11-15'
p148
sS'Kassadin'
p149
S'2009-08-07'
p150
sS'Sona'
p151
S'2010-09-21'
p152
sS'Tahm Kench'
p153
S'2015-07-09'
p154
sS'Vladimir'
p155
S'2010-07-27'
p156
sS'Pantheon'
p157
S'2010-02-02'
p158
sS'Rakan'
p159
g18
sS'Riven'
p160
S'2011-09-14'
p161
sS'Kindred'
p162
S'2015-10-14'
p163
sS'Xin Zhao'
p164
S'2010-07-13'
p165
sS'Cassiopeia'
p166
S'2010-12-14'
p167
sS'Maokai'
p168
S'2011-02-16'
p169
sS'Thresh'
p170
S'2013-01-23'
p171
sS'Kayle'
p172
g4
sS'Orianna'
p173
S'2011-06-01'
p174
sS'Hecarim'
p175
S'2012-04-18'
p176
sS'Taric'
p177
g72
sS'Malzahar'
p178
S'2010-06-01'
p179
sS'Darius'
p180
S'2012-05-23'
p181
sS'Lissandra'
p182
S'2013-04-30'
p183
sS'Nunu'
p184
g4
sS'Bard'
p185
S'2015-03-12'
p186
sS'Tristana'
p187
g4
sS'Olaf'
p188
S'2010-06-09'
p189
sS'Ziggs'
p190
S'2012-02-01'
p191
sS'Irelia'
p192
S'2010-11-16'
p193
sS'Nami'
p194
S'2012-12-07'
p195
sS'Jhin'
p196
S'2016-02-01'
p197
sS'Soraka'
p198
g4
sS'Karma'
p199
S'2011-02-01'
p200
sS'Annie'
p201
g4
sS'Akali'
p202
S'2010-05-11'
p203
sS'LeBlanc'
p204
S'2010-11-02'
p205
sS'Syndra'
p206
S'2012-09-13'
p207
sS'Veigar'
p208
S'2009-07-24'
p209
sS"Cho'Gath"
p210
g57
sS'Janna'
p211
g76
sS'Nautilus'
p212
S'2012-02-14'
p213
sS'Evelynn'
p214
g47
sS'Gragas'
p215
g158
sS'Zed'
p216
S'2012-11-13'
p217
sS'Shen'
p218
S'2010-03-24'
p219
sS'Vi'
p220
S'2012-12-19'
p221
sS'Viktor'
p222
S'2011-12-29'
p223
sS'Lulu'
p224
S'2012-03-20'
p225
sS'Teemo'
p226
g4
sS'Dr. Mundo'
p227
g76
sS'Master Yi'
p228
g4
sS'Swain'
p229
S'2010-10-05'
p230
sS'Ahri'
p231
S'2011-12-14'
p232
sS'Aurelion Sol'
p233
S'2016-03-24'
p234
sS'Quinn'
p235
S'2013-03-01'
p236
sS'Sion'
p237
g4
sS'Vayne'
p238
S'2011-05-10'
p239
sS'Nasus'
p240
S'2009-10-01'
p241
sS'Ezreal'
p242
S'2010-03-16'
p243
s.